target datalayout = "e-m:e-p270:32:32-p271:32:32-p272:64:64-i64:64-i128:128-f80:128-n8:16:32:64-S128"
target triple = "x86_64-pc-linux-gnu"

%class.cmCursesOptionsWidget = type { %class.cmCursesWidget.base, %"class.std::vector", i64 }
%class.cmCursesWidget.base = type <{ ptr, i32, [4 x i8], %"class.std::__cxx11::basic_string", ptr, i32 }>
%"class.std::__cxx11::basic_string" = type { %"struct.std::__cxx11::basic_string<char>::_Alloc_hider", i64, %union.anon }
%"struct.std::__cxx11::basic_string<char>::_Alloc_hider" = type { ptr }
%union.anon = type { i64, [8 x i8] }
%"class.std::vector" = type { %"struct.std::_Vector_base" }
%"struct.std::_Vector_base" = type { %"struct.std::_Vector_base<std::__cxx11::basic_string<char>, std::allocator<std::__cxx11::basic_string<char>>>::_Vector_impl" }
%"struct.std::_Vector_base<std::__cxx11::basic_string<char>, std::allocator<std::__cxx11::basic_string<char>>>::_Vector_impl" = type { %"struct.std::_Vector_base<std::__cxx11::basic_string<char>, std::allocator<std::__cxx11::basic_string<char>>>::_Vector_impl_data" }
%"struct.std::_Vector_base<std::__cxx11::basic_string<char>, std::allocator<std::__cxx11::basic_string<char>>>::_Vector_impl_data" = type { ptr, ptr, ptr }
%struct._win_st = type { i16, i16, i16, i16, i16, i16, i16, i32, i32, i8, i8, i8, i8, i8, i8, i8, i8, i8, i32, ptr, i16, i16, i32, i32, ptr, %"struct._win_st::pdat", i16, %struct.cchar_t, i32 }
%"struct._win_st::pdat" = type { i16, i16, i16, i16, i16, i16 }
%struct.cchar_t = type { i32, [5 x i32], i32 }
%"class.__gnu_cxx::__normal_iterator.3" = type { ptr }

; Function Attrs: mustprogress nounwind uwtable
define linkonce_odr dso_local noundef nonnull align 8 dereferenceable(8) ptr @_ZNK9__gnu_cxx17__normal_iteratorIPKNSt7__cxx1112basic_stringIcSt11char_traitsIcESaIcEEESt6vectorIS6_SaIS6_EEE4baseEv(ptr noundef nonnull align 8 dereferenceable(8) %0) #2 comdat align 2 {
  %2 = alloca ptr, align 8
  store ptr %0, ptr %2, align 8
  %3 = load ptr, ptr %2, align 8
  %4 = getelementptr inbounds %"class.__gnu_cxx::__normal_iterator.3", ptr %3, i32 0, i32 0
  ret ptr %4
}

; Function Attrs: mustprogress nounwind uwtable
define linkonce_odr dso_local void @_ZN9__gnu_cxx17__normal_iteratorIPKNSt7__cxx1112basic_stringIcSt11char_traitsIcESaIcEEESt6vectorIS6_SaIS6_EEEC2ERKS8_(ptr noundef nonnull align 8 dereferenceable(8) %0, ptr noundef nonnull align 8 dereferenceable(8) %1) unnamed_addr #2 comdat align 2 {
  %3 = alloca ptr, align 8
  %4 = alloca ptr, align 8
  store ptr %0, ptr %3, align 8
  store ptr %1, ptr %4, align 8
  %5 = load ptr, ptr %3, align 8
  %6 = getelementptr inbounds %"class.__gnu_cxx::__normal_iterator.3", ptr %5, i32 0, i32 0
  %7 = load ptr, ptr %4, align 8
  %8 = load ptr, ptr %7, align 8
  store ptr %8, ptr %6, align 8
  ret void
}

; Function Attrs: mustprogress nounwind uwtable
define linkonce_odr dso_local noundef nonnull align 8 dereferenceable(32) ptr @_ZNSt6vectorINSt7__cxx1112basic_stringIcSt11char_traitsIcESaIcEEESaIS5_EEixEm(ptr noundef nonnull align 8 dereferenceable(24) %0, i64 noundef %1) #2 comdat align 2 {
  %3 = alloca ptr, align 8
  %4 = alloca i64, align 8
  store ptr %0, ptr %3, align 8
  store i64 %1, ptr %4, align 8
  %5 = load ptr, ptr %3, align 8
  %6 = getelementptr inbounds %"struct.std::_Vector_base", ptr %5, i32 0, i32 0
  %7 = getelementptr inbounds %"struct.std::_Vector_base<std::__cxx11::basic_string<char>, std::allocator<std::__cxx11::basic_string<char>>>::_Vector_impl_data", ptr %6, i32 0, i32 0
  %8 = load ptr, ptr %7, align 8
  %9 = load i64, ptr %4, align 8
  %10 = getelementptr inbounds %"class.std::__cxx11::basic_string", ptr %8, i64 %9
  ret ptr %10
}

; Function Attrs: mustprogress nounwind uwtable
define linkonce_odr dso_local noundef i64 @_ZNKSt6vectorINSt7__cxx1112basic_stringIcSt11char_traitsIcESaIcEEESaIS5_EE4sizeEv(ptr noundef nonnull align 8 dereferenceable(24) %0) #2 comdat align 2 {
  %2 = alloca ptr, align 8
  store ptr %0, ptr %2, align 8
  %3 = load ptr, ptr %2, align 8
  %4 = getelementptr inbounds %"struct.std::_Vector_base", ptr %3, i32 0, i32 0
  %5 = getelementptr inbounds %"struct.std::_Vector_base<std::__cxx11::basic_string<char>, std::allocator<std::__cxx11::basic_string<char>>>::_Vector_impl_data", ptr %4, i32 0, i32 1
  %6 = load ptr, ptr %5, align 8
  %7 = getelementptr inbounds %"struct.std::_Vector_base", ptr %3, i32 0, i32 0
  %8 = getelementptr inbounds %"struct.std::_Vector_base<std::__cxx11::basic_string<char>, std::allocator<std::__cxx11::basic_string<char>>>::_Vector_impl_data", ptr %7, i32 0, i32 0
  %9 = load ptr, ptr %8, align 8
  %10 = ptrtoint ptr %6 to i64
  %11 = ptrtoint ptr %9 to i64
  %12 = sub i64 %10, %11
  %13 = sdiv exact i64 %12, 32
  ret i64 %13
}

; Function Attrs: mustprogress nounwind uwtable
define linkonce_odr dso_local noundef zeroext i1 @_ZN9__gnu_cxxeqIPKNSt7__cxx1112basic_stringIcSt11char_traitsIcESaIcEEESt6vectorIS6_SaIS6_EEEEbRKNS_17__normal_iteratorIT_T0_EESH_(ptr noundef nonnull align 8 dereferenceable(8) %0, ptr noundef nonnull align 8 dereferenceable(8) %1) #2 comdat {
  %3 = alloca ptr, align 8
  %4 = alloca ptr, align 8
  store ptr %0, ptr %3, align 8
  store ptr %1, ptr %4, align 8
  %5 = load ptr, ptr %3, align 8
  %6 = call noundef nonnull align 8 dereferenceable(8) ptr @_ZNK9__gnu_cxx17__normal_iteratorIPKNSt7__cxx1112basic_stringIcSt11char_traitsIcESaIcEEESt6vectorIS6_SaIS6_EEE4baseEv(ptr noundef nonnull align 8 dereferenceable(8) %5) #8
  %7 = load ptr, ptr %6, align 8
  %8 = load ptr, ptr %4, align 8
  %9 = call noundef nonnull align 8 dereferenceable(8) ptr @_ZNK9__gnu_cxx17__normal_iteratorIPKNSt7__cxx1112basic_stringIcSt11char_traitsIcESaIcEEESt6vectorIS6_SaIS6_EEE4baseEv(ptr noundef nonnull align 8 dereferenceable(8) %8) #8
  %10 = load ptr, ptr %9, align 8
  %11 = icmp eq ptr %7, %10
  ret i1 %11
}

; Function Attrs: mustprogress nounwind uwtable
define linkonce_odr dso_local ptr @_ZNKSt6vectorINSt7__cxx1112basic_stringIcSt11char_traitsIcESaIcEEESaIS5_EE3endEv(ptr noundef nonnull align 8 dereferenceable(24) %0) #2 comdat align 2 {
  %2 = alloca %"class.__gnu_cxx::__normal_iterator.3", align 8
  %3 = alloca ptr, align 8
  store ptr %0, ptr %3, align 8
  %4 = load ptr, ptr %3, align 8
  %5 = getelementptr inbounds %"struct.std::_Vector_base", ptr %4, i32 0, i32 0
  %6 = getelementptr inbounds %"struct.std::_Vector_base<std::__cxx11::basic_string<char>, std::allocator<std::__cxx11::basic_string<char>>>::_Vector_impl_data", ptr %5, i32 0, i32 1
  call void @_ZN9__gnu_cxx17__normal_iteratorIPKNSt7__cxx1112basic_stringIcSt11char_traitsIcESaIcEEESt6vectorIS6_SaIS6_EEEC2ERKS8_(ptr noundef nonnull align 8 dereferenceable(8) %2, ptr noundef nonnull align 8 dereferenceable(8) %6) #8
  %7 = getelementptr inbounds %"class.__gnu_cxx::__normal_iterator.3", ptr %2, i32 0, i32 0
  %8 = load ptr, ptr %7, align 8
  ret ptr %8
}

; Function Attrs: mustprogress nounwind uwtable
define linkonce_odr dso_local ptr @_ZNKSt6vectorINSt7__cxx1112basic_stringIcSt11char_traitsIcESaIcEEESaIS5_EE5beginEv(ptr noundef nonnull align 8 dereferenceable(24) %0) #2 comdat align 2 {
  %2 = alloca %"class.__gnu_cxx::__normal_iterator.3", align 8
  %3 = alloca ptr, align 8
  store ptr %0, ptr %3, align 8
  %4 = load ptr, ptr %3, align 8
  %5 = getelementptr inbounds %"struct.std::_Vector_base", ptr %4, i32 0, i32 0
  %6 = getelementptr inbounds %"struct.std::_Vector_base<std::__cxx11::basic_string<char>, std::allocator<std::__cxx11::basic_string<char>>>::_Vector_impl_data", ptr %5, i32 0, i32 0
  call void @_ZN9__gnu_cxx17__normal_iteratorIPKNSt7__cxx1112basic_stringIcSt11char_traitsIcESaIcEEESt6vectorIS6_SaIS6_EEEC2ERKS8_(ptr noundef nonnull align 8 dereferenceable(8) %2, ptr noundef nonnull align 8 dereferenceable(8) %6) #8
  %7 = getelementptr inbounds %"class.__gnu_cxx::__normal_iterator.3", ptr %2, i32 0, i32 0
  %8 = load ptr, ptr %7, align 8
  ret ptr %8
}

; Function Attrs: mustprogress uwtable
define dso_local void @_ZN21cmCursesOptionsWidget14PreviousOptionEv(ptr noundef nonnull align 8 dereferenceable(96) %0) #0 align 2 {
  %2 = alloca ptr, align 8
  store ptr %0, ptr %2, align 8
  %3 = load ptr, ptr %2, align 8
  %4 = getelementptr inbounds %class.cmCursesOptionsWidget, ptr %3, i32 0, i32 2
  %5 = load i64, ptr %4, align 8
  %6 = icmp eq i64 %5, 0
  br i1 %6, label %7, label %12

7:                                                ; preds = %1
  %8 = getelementptr inbounds %class.cmCursesOptionsWidget, ptr %3, i32 0, i32 1
  %9 = call noundef i64 @_ZNKSt6vectorINSt7__cxx1112basic_stringIcSt11char_traitsIcESaIcEEESaIS5_EE4sizeEv(ptr noundef nonnull align 8 dereferenceable(24) %8) #8
  %10 = sub i64 %9, 1
  %11 = getelementptr inbounds %class.cmCursesOptionsWidget, ptr %3, i32 0, i32 2
  store i64 %10, ptr %11, align 8
  br label %16

12:                                               ; preds = %1
  %13 = getelementptr inbounds %class.cmCursesOptionsWidget, ptr %3, i32 0, i32 2
  %14 = load i64, ptr %13, align 8
  %15 = add i64 %14, -1
  store i64 %15, ptr %13, align 8
  br label %16

16:                                               ; preds = %12, %7
  %17 = getelementptr inbounds %class.cmCursesOptionsWidget, ptr %3, i32 0, i32 1
  %18 = getelementptr inbounds %class.cmCursesOptionsWidget, ptr %3, i32 0, i32 2
  %19 = load i64, ptr %18, align 8
  %20 = call noundef nonnull align 8 dereferenceable(32) ptr @_ZNSt6vectorINSt7__cxx1112basic_stringIcSt11char_traitsIcESaIcEEESaIS5_EEixEm(ptr noundef nonnull align 8 dereferenceable(24) %17, i64 noundef %19) #8
  %21 = load ptr, ptr %3, align 8
  %22 = getelementptr inbounds ptr, ptr %21, i64 4
  %23 = load ptr, ptr %22, align 8
  call void %23(ptr noundef nonnull align 8 dereferenceable(60) %3, ptr noundef nonnull align 8 dereferenceable(32) %20)
  ret void
}

; Function Attrs: mustprogress uwtable
define dso_local void @_ZN21cmCursesOptionsWidget10NextOptionEv(ptr noundef nonnull align 8 dereferenceable(96) %0) #0 align 2 {
  %2 = alloca ptr, align 8
  store ptr %0, ptr %2, align 8
  %3 = load ptr, ptr %2, align 8
  %4 = getelementptr inbounds %class.cmCursesOptionsWidget, ptr %3, i32 0, i32 2
  %5 = load i64, ptr %4, align 8
  %6 = add i64 %5, 1
  store i64 %6, ptr %4, align 8
  %7 = getelementptr inbounds %class.cmCursesOptionsWidget, ptr %3, i32 0, i32 2
  %8 = load i64, ptr %7, align 8
  %9 = getelementptr inbounds %class.cmCursesOptionsWidget, ptr %3, i32 0, i32 1
  %10 = call noundef i64 @_ZNKSt6vectorINSt7__cxx1112basic_stringIcSt11char_traitsIcESaIcEEESaIS5_EE4sizeEv(ptr noundef nonnull align 8 dereferenceable(24) %9) #8
  %11 = sub i64 %10, 1
  %12 = icmp ugt i64 %8, %11
  br i1 %12, label %13, label %15

13:                                               ; preds = %1
  %14 = getelementptr inbounds %class.cmCursesOptionsWidget, ptr %3, i32 0, i32 2
  store i64 0, ptr %14, align 8
  br label %15

15:                                               ; preds = %13, %1
  %16 = getelementptr inbounds %class.cmCursesOptionsWidget, ptr %3, i32 0, i32 1
  %17 = getelementptr inbounds %class.cmCursesOptionsWidget, ptr %3, i32 0, i32 2
  %18 = load i64, ptr %17, align 8
  %19 = call noundef nonnull align 8 dereferenceable(32) ptr @_ZNSt6vectorINSt7__cxx1112basic_stringIcSt11char_traitsIcESaIcEEESaIS5_EEixEm(ptr noundef nonnull align 8 dereferenceable(24) %16, i64 noundef %18) #8
  %20 = load ptr, ptr %3, align 8
  %21 = getelementptr inbounds ptr, ptr %20, i64 4
  %22 = load ptr, ptr %21, align 8
  call void %22(ptr noundef nonnull align 8 dereferenceable(60) %3, ptr noundef nonnull align 8 dereferenceable(32) %19)
  ret void
}

; Function Attrs: mustprogress nounwind uwtable
define linkonce_odr dso_local noundef zeroext i1 @_ZNKSt6vectorINSt7__cxx1112basic_stringIcSt11char_traitsIcESaIcEEESaIS5_EE5emptyEv(ptr noundef nonnull align 8 dereferenceable(24) %0) #2 comdat align 2 {
  %2 = alloca ptr, align 8
  %3 = alloca %"class.__gnu_cxx::__normal_iterator.3", align 8
  %4 = alloca %"class.__gnu_cxx::__normal_iterator.3", align 8
  store ptr %0, ptr %2, align 8
  %5 = load ptr, ptr %2, align 8
  %6 = call ptr @_ZNKSt6vectorINSt7__cxx1112basic_stringIcSt11char_traitsIcESaIcEEESaIS5_EE5beginEv(ptr noundef nonnull align 8 dereferenceable(24) %5) #8
  %7 = getelementptr inbounds %"class.__gnu_cxx::__normal_iterator.3", ptr %3, i32 0, i32 0
  store ptr %6, ptr %7, align 8
  %8 = call ptr @_ZNKSt6vectorINSt7__cxx1112basic_stringIcSt11char_traitsIcESaIcEEESaIS5_EE3endEv(ptr noundef nonnull align 8 dereferenceable(24) %5) #8
  %9 = getelementptr inbounds %"class.__gnu_cxx::__normal_iterator.3", ptr %4, i32 0, i32 0
  store ptr %8, ptr %9, align 8
  %10 = call noundef zeroext i1 @_ZN9__gnu_cxxeqIPKNSt7__cxx1112basic_stringIcSt11char_traitsIcESaIcEEESt6vectorIS6_SaIS6_EEEEbRKNS_17__normal_iteratorIT_T0_EESH_(ptr noundef nonnull align 8 dereferenceable(8) %3, ptr noundef nonnull align 8 dereferenceable(8) %4) #8
  ret i1 %10
}

; Function Attrs: mustprogress uwtable
define dso_local noundef zeroext i1 @_ZN21cmCursesOptionsWidget11HandleInputERiP16cmCursesMainFormP7_win_st(ptr noundef nonnull align 8 dereferenceable(96) %0, ptr noundef nonnull align 4 dereferenceable(4) %1, ptr noundef %2, ptr noundef %3) unnamed_addr #0 align 2 {
  %5 = alloca i1, align 1
  %6 = alloca ptr, align 8
  %7 = alloca ptr, align 8
  %8 = alloca ptr, align 8
  %9 = alloca ptr, align 8
  store ptr %0, ptr %6, align 8
  store ptr %1, ptr %7, align 8
  store ptr %2, ptr %8, align 8
  store ptr %3, ptr %9, align 8
  %10 = load ptr, ptr %6, align 8
  %11 = getelementptr inbounds %class.cmCursesOptionsWidget, ptr %10, i32 0, i32 1
  %12 = call noundef zeroext i1 @_ZNKSt6vectorINSt7__cxx1112basic_stringIcSt11char_traitsIcESaIcEEESaIS5_EE5emptyEv(ptr noundef nonnull align 8 dereferenceable(24) %11) #8
  br i1 %12, label %13, label %14

13:                                               ; preds = %4
  store i1 false, ptr %5, align 1
  br label %66

14:                                               ; preds = %4
  %15 = load ptr, ptr %7, align 8
  %16 = load i32, ptr %15, align 4
  switch i32 %16, label %65 [
    i32 10, label %17
    i32 343, label %17
    i32 260, label %33
    i32 2, label %33
    i32 261, label %49
    i32 6, label %49
  ]

17:                                               ; preds = %14, %14
  call void @_ZN21cmCursesOptionsWidget10NextOptionEv(ptr noundef nonnull align 8 dereferenceable(96) %10)
  %18 = load ptr, ptr %9, align 8
  %19 = load ptr, ptr %9, align 8
  %20 = icmp ne ptr null, %19
  br i1 %20, label %21, label %27

21:                                               ; preds = %17
  %22 = load ptr, ptr %9, align 8
  %23 = getelementptr inbounds %struct._win_st, ptr %22, i32 0, i32 2
  %24 = load i16, ptr %23, align 4
  %25 = sext i16 %24 to i32
  %26 = add nsw i32 %25, 1
  br label %28

27:                                               ; preds = %17
  br label %28

28:                                               ; preds = %27, %21
  %29 = phi i32 [ %26, %21 ], [ -1, %27 ]
  %30 = call i32 @wtouchln(ptr noundef %18, i32 noundef 0, i32 noundef %29, i32 noundef 1)
  %31 = load ptr, ptr %9, align 8
  %32 = call i32 @wrefresh(ptr noundef %31)
  store i1 true, ptr %5, align 1
  br label %66

33:                                               ; preds = %14, %14
  %34 = load ptr, ptr %9, align 8
  %35 = load ptr, ptr %9, align 8
  %36 = icmp ne ptr null, %35
  br i1 %36, label %37, label %43

37:                                               ; preds = %33
  %38 = load ptr, ptr %9, align 8
  %39 = getelementptr inbounds %struct._win_st, ptr %38, i32 0, i32 2
  %40 = load i16, ptr %39, align 4
  %41 = sext i16 %40 to i32
  %42 = add nsw i32 %41, 1
  br label %44

43:                                               ; preds = %33
  br label %44

44:                                               ; preds = %43, %37
  %45 = phi i32 [ %42, %37 ], [ -1, %43 ]
  %46 = call i32 @wtouchln(ptr noundef %34, i32 noundef 0, i32 noundef %45, i32 noundef 1)
  %47 = load ptr, ptr %9, align 8
  %48 = call i32 @wrefresh(ptr noundef %47)
  call void @_ZN21cmCursesOptionsWidget14PreviousOptionEv(ptr noundef nonnull align 8 dereferenceable(96) %10)
  store i1 true, ptr %5, align 1
  br label %66

49:                                               ; preds = %14, %14
  call void @_ZN21cmCursesOptionsWidget10NextOptionEv(ptr noundef nonnull align 8 dereferenceable(96) %10)
  %50 = load ptr, ptr %9, align 8
  %51 = load ptr, ptr %9, align 8
  %52 = icmp ne ptr null, %51
  br i1 %52, label %53, label %59

53:                                               ; preds = %49
  %54 = load ptr, ptr %9, align 8
  %55 = getelementptr inbounds %struct._win_st, ptr %54, i32 0, i32 2
  %56 = load i16, ptr %55, align 4
  %57 = sext i16 %56 to i32
  %58 = add nsw i32 %57, 1
  br label %60

59:                                               ; preds = %49
  br label %60

60:                                               ; preds = %59, %53
  %61 = phi i32 [ %58, %53 ], [ -1, %59 ]
  %62 = call i32 @wtouchln(ptr noundef %50, i32 noundef 0, i32 noundef %61, i32 noundef 1)
  %63 = load ptr, ptr %9, align 8
  %64 = call i32 @wrefresh(ptr noundef %63)
  store i1 true, ptr %5, align 1
  br label %66

65:                                               ; preds = %14
  store i1 false, ptr %5, align 1
  br label %66

66:                                               ; preds = %65, %60, %44, %28, %13
  %67 = load i1, ptr %5, align 1
  ret i1 %67
}