; Function Attrs: mustprogress uwtable
define dso_local noundef zeroext i1 @_ZN21cmCursesOptionsWidget11HandleInputERiP16cmCursesMainFormP7_win_st(ptr noundef nonnull align 8 dereferenceable(96) %0, ptr nocapture noundef nonnull readonly align 4 dereferenceable(4) %1, ptr nocapture readnone %2, ptr noundef %3) unnamed_addr #0 align 2 {
  %5 = getelementptr inbounds i8, ptr %0, i64 64
  %6 = load ptr, ptr %5, align 8
  %7 = getelementptr inbounds i8, ptr %0, i64 72
  %8 = load ptr, ptr %7, align 8
  %9 = icmp eq ptr %6, %8
  br i1 %9, label %79, label %10

10:                                               ; preds = %4
  %11 = load i32, ptr %1, align 4
  switch i32 %11, label %79 [
    i32 10, label %_ZN21cmCursesOptionsWidget10NextOptionEv.exit
    i32 343, label %_ZN21cmCursesOptionsWidget10NextOptionEv.exit
    i32 260, label %34
    i32 2, label %34
    i32 261, label %_ZN21cmCursesOptionsWidget10NextOptionEv.exit18
    i32 6, label %_ZN21cmCursesOptionsWidget10NextOptionEv.exit18
  ]

_ZN21cmCursesOptionsWidget10NextOptionEv.exit:    ; preds = %10, %10
  %12 = getelementptr inbounds i8, ptr %0, i64 88
  %13 = load i64, ptr %12, align 8
  %14 = add i64 %13, 1
  %15 = ptrtoint ptr %8 to i64
  %16 = ptrtoint ptr %6 to i64
  %17 = sub i64 %15, %16
  %18 = ashr exact i64 %17, 5
  %19 = add nsw i64 %18, -1
  %20 = icmp ugt i64 %14, %19
  %spec.select = select i1 %20, i64 0, i64 %14
  store i64 %spec.select, ptr %12, align 8
  %21 = getelementptr inbounds %"class.std::__cxx11::basic_string", ptr %6, i64 %spec.select
  %22 = load ptr, ptr %0, align 8
  %23 = getelementptr inbounds i8, ptr %22, i64 32
  %24 = load ptr, ptr %23, align 8
  tail call void %24(ptr noundef nonnull align 8 dereferenceable(60) %0, ptr noundef nonnull align 8 dereferenceable(32) %21)
  %.not17 = icmp eq ptr %3, null
  br i1 %.not17, label %30, label %25

25:                                               ; preds = %_ZN21cmCursesOptionsWidget10NextOptionEv.exit
  %26 = getelementptr inbounds i8, ptr %3, i64 4
  %27 = load i16, ptr %26, align 4
  %28 = sext i16 %27 to i32
  %29 = add nsw i32 %28, 1
  br label %30

30:                                               ; preds = %_ZN21cmCursesOptionsWidget10NextOptionEv.exit, %25
  %31 = phi i32 [ %29, %25 ], [ -1, %_ZN21cmCursesOptionsWidget10NextOptionEv.exit ]
  %32 = tail call i32 @wtouchln(ptr noundef %3, i32 noundef 0, i32 noundef %31, i32 noundef 1)
  %33 = tail call i32 @wrefresh(ptr noundef %3)
  br label %79

34:                                               ; preds = %10, %10
  %.not16 = icmp eq ptr %3, null
  br i1 %.not16, label %40, label %35

35:                                               ; preds = %34
  %36 = getelementptr inbounds i8, ptr %3, i64 4
  %37 = load i16, ptr %36, align 4
  %38 = sext i16 %37 to i32
  %39 = add nsw i32 %38, 1
  br label %40

40:                                               ; preds = %34, %35
  %41 = phi i32 [ %39, %35 ], [ -1, %34 ]
  %42 = tail call i32 @wtouchln(ptr noundef %3, i32 noundef 0, i32 noundef %41, i32 noundef 1)
  %43 = tail call i32 @wrefresh(ptr noundef %3)
  %44 = getelementptr inbounds i8, ptr %0, i64 88
  %45 = load i64, ptr %44, align 8
  %46 = icmp eq i64 %45, 0
  %47 = load ptr, ptr %7, align 8
  %48 = load ptr, ptr %5, align 8
  %49 = ptrtoint ptr %47 to i64
  %50 = ptrtoint ptr %48 to i64
  %51 = sub i64 %49, %50
  %52 = ashr exact i64 %51, 5
  %storemerge.in.i = select i1 %46, i64 %52, i64 %45
  %storemerge.i = add i64 %storemerge.in.i, -1
  store i64 %storemerge.i, ptr %44, align 8
  %53 = getelementptr inbounds %"class.std::__cxx11::basic_string", ptr %48, i64 %storemerge.i
  %54 = load ptr, ptr %0, align 8
  %55 = getelementptr inbounds i8, ptr %54, i64 32
  %56 = load ptr, ptr %55, align 8
  tail call void %56(ptr noundef nonnull align 8 dereferenceable(60) %0, ptr noundef nonnull align 8 dereferenceable(32) %53)
  br label %79

_ZN21cmCursesOptionsWidget10NextOptionEv.exit18:  ; preds = %10, %10
  %57 = getelementptr inbounds i8, ptr %0, i64 88
  %58 = load i64, ptr %57, align 8
  %59 = add i64 %58, 1
  %60 = ptrtoint ptr %8 to i64
  %61 = ptrtoint ptr %6 to i64
  %62 = sub i64 %60, %61
  %63 = ashr exact i64 %62, 5
  %64 = add nsw i64 %63, -1
  %65 = icmp ugt i64 %59, %64
  %spec.select19 = select i1 %65, i64 0, i64 %59
  store i64 %spec.select19, ptr %57, align 8
  %66 = getelementptr inbounds %"class.std::__cxx11::basic_string", ptr %6, i64 %spec.select19
  %67 = load ptr, ptr %0, align 8
  %68 = getelementptr inbounds i8, ptr %67, i64 32
  %69 = load ptr, ptr %68, align 8
  tail call void %69(ptr noundef nonnull align 8 dereferenceable(60) %0, ptr noundef nonnull align 8 dereferenceable(32) %66)
  %.not = icmp eq ptr %3, null
  br i1 %.not, label %75, label %70

70:                                               ; preds = %_ZN21cmCursesOptionsWidget10NextOptionEv.exit18
  %71 = getelementptr inbounds i8, ptr %3, i64 4
  %72 = load i16, ptr %71, align 4
  %73 = sext i16 %72 to i32
  %74 = add nsw i32 %73, 1
  br label %75

75:                                               ; preds = %_ZN21cmCursesOptionsWidget10NextOptionEv.exit18, %70
  %76 = phi i32 [ %74, %70 ], [ -1, %_ZN21cmCursesOptionsWidget10NextOptionEv.exit18 ]
  %77 = tail call i32 @wtouchln(ptr noundef %3, i32 noundef 0, i32 noundef %76, i32 noundef 1)
  %78 = tail call i32 @wrefresh(ptr noundef %3)
  br label %79

79:                                               ; preds = %10, %4, %75, %40, %30
  %.0 = phi i1 [ true, %75 ], [ true, %40 ], [ true, %30 ], [ false, %4 ], [ false, %10 ]
  ret i1 %.0
}